target datalayout = "e-m:e-p270:32:32-p271:32:32-p272:64:64-i64:64-i128:128-f80:128-n8:16:32:64-S128"
target triple = "x86_64-pc-linux-gnu"

%class.SafeThreadsListPtr = type <{ ptr, ptr, ptr, i8, i8, [6 x i8] }>
%class.Thread = type { %class.ThreadShadow.base, i64, [43 x i64], ptr, ptr, i32, ptr, i64, i64, %class.ThreadLocalAllocBuffer, i64, %class.ThreadHeapSampler, %class.ThreadStatisticalInfo, %class.JfrThreadLocal, ptr, ptr, ptr, ptr, ptr, ptr, i64, i32, i32, ptr, i32, i32, i32, i32, i8, ptr }
%class.ThreadShadow.base = type <{ ptr, ptr, ptr, i32 }>
%class.ThreadLocalAllocBuffer = type <{ ptr, ptr, ptr, ptr, ptr, i64, i64, i64, i64, i32, i32, i32, i32, i64, %class.AdaptiveWeightedAverage, [4 x i8] }>
%class.AdaptiveWeightedAverage = type { float, i32, i32, i8, float }
%class.ThreadHeapSampler = type { i64 }
%class.ThreadStatisticalInfo = type { i64, i64 }
%class.JfrThreadLocal = type <{ ptr, ptr, ptr, ptr, ptr, ptr, ptr, ptr, ptr, ptr, %class.RefCountHandle, i64, i64, i64, i64, i64, i64, i64, i64, i64, i64, i64, i32, i32, i32, i16, i8, i8, i8, i8, i8, [5 x i8] }>
%class.RefCountHandle = type { ptr }

@.str.17 = private unnamed_addr constant [30 x i8] c" _threads_hazard_ptr=0x%016lx\00", align 1
@.str.18 = private unnamed_addr constant [38 x i8] c", _nested_threads_hazard_ptr=0x%016lx\00", align 1

; Function Attrs: mustprogress nounwind uwtable
define linkonce_odr hidden noundef i64 @_Z3p2iPVKv(ptr noundef %0) #1 comdat {
  %2 = alloca ptr, align 8
  store ptr %0, ptr %2, align 8
  %3 = load ptr, ptr %2, align 8
  %4 = ptrtoint ptr %3 to i64
  ret i64 %4
}

; Function Attrs: mustprogress nounwind uwtable
define hidden void @_ZN18SafeThreadsListPtr8print_onEP12outputStream(ptr noundef nonnull align 8 dereferenceable(26) %0, ptr noundef %1) #1 align 2 {
  %3 = alloca ptr, align 8
  %4 = alloca ptr, align 8
  store ptr %0, ptr %3, align 8
  store ptr %1, ptr %4, align 8
  %5 = load ptr, ptr %3, align 8
  %6 = getelementptr inbounds %class.SafeThreadsListPtr, ptr %5, i32 0, i32 1
  %7 = load ptr, ptr %6, align 8
  %8 = getelementptr inbounds %class.Thread, ptr %7, i32 0, i32 4
  %9 = load ptr, ptr %8, align 8
  %10 = icmp eq ptr %5, %9
  br i1 %10, label %11, label %16

11:                                               ; preds = %2
  %12 = load ptr, ptr %4, align 8
  %13 = getelementptr inbounds %class.SafeThreadsListPtr, ptr %5, i32 0, i32 2
  %14 = load ptr, ptr %13, align 8
  %15 = call noundef i64 @_Z3p2iPVKv(ptr noundef %14)
  call void (ptr, ptr, ...) @_ZN12outputStream5printEPKcz(ptr noundef nonnull align 8 dereferenceable(56) %12, ptr noundef @.str.17, i64 noundef %15)
  br label %21

16:                                               ; preds = %2
  %17 = load ptr, ptr %4, align 8
  %18 = getelementptr inbounds %class.SafeThreadsListPtr, ptr %5, i32 0, i32 2
  %19 = load ptr, ptr %18, align 8
  %20 = call noundef i64 @_Z3p2iPVKv(ptr noundef %19)
  call void (ptr, ptr, ...) @_ZN12outputStream5printEPKcz(ptr noundef nonnull align 8 dereferenceable(56) %17, ptr noundef @.str.18, i64 noundef %20)
  br label %21

21:                                               ; preds = %16, %11
  ret void
}