; Function Attrs: mustprogress nounwind uwtable
define hidden void @_ZN18SafeThreadsListPtr8print_onEP12outputStream(ptr noundef nonnull readonly align 8 dereferenceable(26) %0, ptr noundef nonnull %1) local_unnamed_addr #1 align 2 {
  %3 = getelementptr inbounds i8, ptr %0, i64 8
  %4 = load ptr, ptr %3, align 8
  %5 = getelementptr inbounds i8, ptr %4, i64 392
  %6 = load ptr, ptr %5, align 8
  %7 = icmp eq ptr %6, %0
  %8 = getelementptr inbounds i8, ptr %0, i64 16
  %9 = load ptr, ptr %8, align 8
  %10 = ptrtoint ptr %9 to i64
  %.str.17..str.18 = select i1 %7, ptr @.str.17, ptr @.str.18
  tail call void (ptr, ptr, ...) @_ZN12outputStream5printEPKcz(ptr noundef nonnull align 8 dereferenceable(56) %1, ptr noundef nonnull %.str.17..str.18, i64 noundef %10) #15
  ret void
}